target datalayout = "e-m:e-p270:32:32-p271:32:32-p272:64:64-i64:64-i128:128-f80:128-n8:16:32:64-S128"
target triple = "x86_64-pc-linux-gnu"

%struct._object = type { i64, ptr }
%class.anon.0 = type { i8 }
%"struct.nanobind::gil_scoped_acquire" = type { i32 }

; Function Attrs: mustprogress nounwind optsize uwtable
define linkonce_odr hidden void @_ZN8nanobind18gil_scoped_acquireD2Ev(ptr noundef nonnull align 4 dereferenceable(4) %0) unnamed_addr #8 comdat align 2 personality ptr @__gxx_personality_v0 {
  %2 = alloca ptr, align 8
  store ptr %0, ptr %2, align 8, !tbaa !56
  %3 = load ptr, ptr %2, align 8
  %4 = getelementptr inbounds nuw %"struct.nanobind::gil_scoped_acquire", ptr %3, i32 0, i32 0
  %5 = load i32, ptr %4, align 4, !tbaa !58
  invoke void @PyGILState_Release(i32 noundef %5) #16
          to label %6 unwind label %7

6:                                                ; preds = %1
  ret void

7:                                                ; preds = %1
  %8 = landingpad { ptr, i32 }
          catch ptr null
  %9 = extractvalue { ptr, i32 } %8, 0
  call void @__clang_call_terminate(ptr %9) #19
  unreachable
}

; Function Attrs: inlinehint mustprogress optsize uwtable
define internal void @_ZL10_Py_DECREFP7_object(ptr noundef %0) #9 {
  %2 = alloca ptr, align 8
  store ptr %0, ptr %2, align 8, !tbaa !3
  %3 = load ptr, ptr %2, align 8, !tbaa !3
  %4 = getelementptr inbounds nuw %struct._object, ptr %3, i32 0, i32 0
  %5 = load i64, ptr %4, align 8, !tbaa !22
  %6 = add nsw i64 %5, -1
  store i64 %6, ptr %4, align 8, !tbaa !22
  %7 = icmp ne i64 %6, 0
  br i1 %7, label %8, label %9

8:                                                ; preds = %1
  br label %11

9:                                                ; preds = %1
  %10 = load ptr, ptr %2, align 8, !tbaa !3
  call void @_Py_Dealloc(ptr noundef %10) #16
  br label %11

11:                                               ; preds = %9, %8
  ret void
}

; Function Attrs: mustprogress nounwind optsize uwtable
define linkonce_odr hidden void @_ZN8nanobind18gil_scoped_acquireC2Ev(ptr noundef nonnull align 4 dereferenceable(4) %0) unnamed_addr #8 comdat align 2 personality ptr @__gxx_personality_v0 {
  %2 = alloca ptr, align 8
  store ptr %0, ptr %2, align 8, !tbaa !56
  %3 = load ptr, ptr %2, align 8
  %4 = getelementptr inbounds nuw %"struct.nanobind::gil_scoped_acquire", ptr %3, i32 0, i32 0
  %5 = invoke i32 @PyGILState_Ensure() #16
          to label %6 unwind label %7

6:                                                ; preds = %1
  store i32 %5, ptr %4, align 4, !tbaa !58
  ret void

7:                                                ; preds = %1
  %8 = landingpad { ptr, i32 }
          catch ptr null
  %9 = extractvalue { ptr, i32 } %8, 0
  call void @__clang_call_terminate(ptr %9) #19
  unreachable
}

; Function Attrs: inlinehint mustprogress nounwind optsize uwtable
define internal void @"_ZZL32nanobind_init_test_intrusive_extRN8nanobind7module_EENK3$_6clEP7_object"(ptr noundef nonnull align 1 dereferenceable(1) %0, ptr noundef %1) #10 align 2 personality ptr @__gxx_personality_v0 {
  %3 = alloca ptr, align 8
  %4 = alloca ptr, align 8
  %5 = alloca %"struct.nanobind::gil_scoped_acquire", align 4
  store ptr %0, ptr %3, align 8, !tbaa !19
  store ptr %1, ptr %4, align 8, !tbaa !3
  call void @llvm.lifetime.start.p0(i64 4, ptr %5) #17
  call void @_ZN8nanobind18gil_scoped_acquireC2Ev(ptr noundef nonnull align 4 dereferenceable(4) %5) #18
  %6 = load ptr, ptr %4, align 8, !tbaa !3
  invoke void @_ZL10_Py_DECREFP7_object(ptr noundef %6) #16
          to label %7 unwind label %8

7:                                                ; preds = %2
  call void @_ZN8nanobind18gil_scoped_acquireD2Ev(ptr noundef nonnull align 4 dereferenceable(4) %5) #18
  call void @llvm.lifetime.end.p0(i64 4, ptr %5) #17
  ret void

8:                                                ; preds = %2
  %9 = landingpad { ptr, i32 }
          catch ptr null
  %10 = extractvalue { ptr, i32 } %9, 0
  call void @__clang_call_terminate(ptr %10) #19
  unreachable
}

; Function Attrs: inlinehint mustprogress nounwind optsize uwtable
define internal void @"_ZZL32nanobind_init_test_intrusive_extRN8nanobind7module_EEN3$_68__invokeEP7_object"(ptr noundef %0) #10 align 2 {
  %2 = alloca ptr, align 8
  %3 = alloca %class.anon.0, align 1
  store ptr %0, ptr %2, align 8, !tbaa !3
  %4 = load ptr, ptr %2, align 8, !tbaa !3
  call void @"_ZZL32nanobind_init_test_intrusive_extRN8nanobind7module_EENK3$_6clEP7_object"(ptr noundef nonnull align 1 dereferenceable(1) %3, ptr noundef %4) #18
  ret void
}