; Function Attrs: inlinehint mustprogress nounwind optsize uwtable
define internal void @"_ZZL32nanobind_init_test_intrusive_extRN8nanobind7module_EEN3$_68__invokeEP7_object"(ptr noundef %0) #8 align 2 personality ptr @__gxx_personality_v0 {
  %2 = invoke i32 @PyGILState_Ensure() #16
          to label %_ZN8nanobind18gil_scoped_acquireC2Ev.exit.i unwind label %3

3:                                                ; preds = %1
  %4 = landingpad { ptr, i32 }
          catch ptr null
  %5 = extractvalue { ptr, i32 } %4, 0
  tail call void @__clang_call_terminate(ptr %5) #19
  unreachable

_ZN8nanobind18gil_scoped_acquireC2Ev.exit.i:      ; preds = %1
  %6 = load i64, ptr %0, align 8, !tbaa !47
  %7 = add nsw i64 %6, -1
  store i64 %7, ptr %0, align 8, !tbaa !47
  %.not.i.i = icmp eq i64 %7, 0
  br i1 %.not.i.i, label %8, label %_ZL10_Py_DECREFP7_object.exit.i

8:                                                ; preds = %_ZN8nanobind18gil_scoped_acquireC2Ev.exit.i
  invoke void @_Py_Dealloc(ptr noundef nonnull %0) #16
          to label %_ZL10_Py_DECREFP7_object.exit.i unwind label %12

_ZL10_Py_DECREFP7_object.exit.i:                  ; preds = %8, %_ZN8nanobind18gil_scoped_acquireC2Ev.exit.i
  invoke void @PyGILState_Release(i32 noundef %2) #16
          to label %"_ZZL32nanobind_init_test_intrusive_extRN8nanobind7module_EENK3$_6clEP7_object.exit" unwind label %9

9:                                                ; preds = %_ZL10_Py_DECREFP7_object.exit.i
  %10 = landingpad { ptr, i32 }
          catch ptr null
  %11 = extractvalue { ptr, i32 } %10, 0
  tail call void @__clang_call_terminate(ptr %11) #19
  unreachable

12:                                               ; preds = %8
  %13 = landingpad { ptr, i32 }
          catch ptr null
  %14 = extractvalue { ptr, i32 } %13, 0
  tail call void @__clang_call_terminate(ptr %14) #19
  unreachable

"_ZZL32nanobind_init_test_intrusive_extRN8nanobind7module_EENK3$_6clEP7_object.exit": ; preds = %_ZL10_Py_DECREFP7_object.exit.i
  ret void
}